	.file	"29.c"
	.text
	.section	.rodata
.LC0:
	.string	"print entity: %d %f\n"
	.text
	.type	entity_print, @function
entity_print:
.LFB6:
	.cfi_startproc
	pushq	%rbp
	.cfi_def_cfa_offset 16
	.cfi_offset 6, -16
	movq	%rsp, %rbp
	.cfi_def_cfa_register 6
	subq	$16, %rsp
	movq	%rdi, -8(%rbp)
	movq	-8(%rbp), %rax
	movss	4(%rax), %xmm0
	cvtss2sd	%xmm0, %xmm0
	movq	-8(%rbp), %rax
	movl	(%rax), %eax
	movl	%eax, %esi
	leaq	.LC0(%rip), %rdi
	movl	$1, %eax
	call	printf@PLT
	nop
	leave
	.cfi_def_cfa 7, 8
	ret
	.cfi_endproc
.LFE6:
	.size	entity_print, .-entity_print
	.section	.rodata
.LC1:
	.string	"init entity %d\n"
	.text
	.type	entity__init, @function
entity__init:
.LFB7:
	.cfi_startproc
	pushq	%rbp
	.cfi_def_cfa_offset 16
	.cfi_offset 6, -16
	movq	%rsp, %rbp
	.cfi_def_cfa_register 6
	subq	$16, %rsp
	movq	%rdi, -8(%rbp)
	movq	-8(%rbp), %rax
	movl	$1, (%rax)
	movq	-8(%rbp), %rax
	movl	(%rax), %eax
	movl	%eax, %esi
	leaq	.LC1(%rip), %rdi
	movl	$0, %eax
	call	printf@PLT
	nop
	leave
	.cfi_def_cfa 7, 8
	ret
	.cfi_endproc
.LFE7:
	.size	entity__init, .-entity__init
	.section	.rodata
.LC2:
	.string	"free entity %d\n"
	.text
	.type	entity__free, @function
entity__free:
.LFB8:
	.cfi_startproc
	pushq	%rbp
	.cfi_def_cfa_offset 16
	.cfi_offset 6, -16
	movq	%rsp, %rbp
	.cfi_def_cfa_register 6
	subq	$16, %rsp
	movq	%rdi, -8(%rbp)
	movq	-8(%rbp), %rax
	movl	(%rax), %eax
	movl	%eax, %esi
	leaq	.LC2(%rip), %rdi
	movl	$0, %eax
	call	printf@PLT
	nop
	leave
	.cfi_def_cfa 7, 8
	ret
	.cfi_endproc
.LFE8:
	.size	entity__free, .-entity__free
	.type	entity_init, @function
entity_init:
.LFB9:
	.cfi_startproc
	pushq	%rbp
	.cfi_def_cfa_offset 16
	.cfi_offset 6, -16
	movq	%rsp, %rbp
	.cfi_def_cfa_register 6
	subq	$16, %rsp
	movq	%rdi, -8(%rbp)
	movq	-8(%rbp), %rax
	movq	%rax, %rdi
	call	entity__init
	nop
	leave
	.cfi_def_cfa 7, 8
	ret
	.cfi_endproc
.LFE9:
	.size	entity_init, .-entity_init
	.type	entity_free, @function
entity_free:
.LFB10:
	.cfi_startproc
	pushq	%rbp
	.cfi_def_cfa_offset 16
	.cfi_offset 6, -16
	movq	%rsp, %rbp
	.cfi_def_cfa_register 6
	subq	$16, %rsp
	movq	%rdi, -8(%rbp)
	movq	-8(%rbp), %rax
	movq	%rax, %rdi
	call	entity__free
	nop
	leave
	.cfi_def_cfa 7, 8
	ret
	.cfi_endproc
.LFE10:
	.size	entity_free, .-entity_free
	.type	global_main, @function
global_main:
.LFB11:
	.cfi_startproc
	pushq	%rbp
	.cfi_def_cfa_offset 16
	.cfi_offset 6, -16
	movq	%rsp, %rbp
	.cfi_def_cfa_register 6
	subq	$16, %rsp
	movq	%rdi, -8(%rbp)
	movq	-8(%rbp), %rax
	movq	%rax, %rdi
	call	entity_print
	nop
	leave
	.cfi_def_cfa 7, 8
	ret
	.cfi_endproc
.LFE11:
	.size	global_main, .-global_main
	.type	global_init, @function
global_init:
.LFB12:
	.cfi_startproc
	pushq	%rbp
	.cfi_def_cfa_offset 16
	.cfi_offset 6, -16
	movq	%rsp, %rbp
	.cfi_def_cfa_register 6
	subq	$16, %rsp
	movq	%rdi, -8(%rbp)
	movq	-8(%rbp), %rax
	movq	%rax, %rdi
	call	entity_init
	nop
	leave
	.cfi_def_cfa 7, 8
	ret
	.cfi_endproc
.LFE12:
	.size	global_init, .-global_init
	.type	global_free, @function
global_free:
.LFB13:
	.cfi_startproc
	pushq	%rbp
	.cfi_def_cfa_offset 16
	.cfi_offset 6, -16
	movq	%rsp, %rbp
	.cfi_def_cfa_register 6
	subq	$16, %rsp
	movq	%rdi, -8(%rbp)
	movq	-8(%rbp), %rax
	movq	%rax, %rdi
	call	entity_free
	nop
	leave
	.cfi_def_cfa 7, 8
	ret
	.cfi_endproc
.LFE13:
	.size	global_free, .-global_free
	.globl	main
	.type	main, @function
main:
.LFB14:
	.cfi_startproc
	pushq	%rbp
	.cfi_def_cfa_offset 16
	.cfi_offset 6, -16
	movq	%rsp, %rbp
	.cfi_def_cfa_register 6
	subq	$32, %rsp
	movl	%edi, -20(%rbp)
	movq	%rsi, -32(%rbp)
	movq	%fs:40, %rax
	movq	%rax, -8(%rbp)
	xorl	%eax, %eax
	movl	$0, -16(%rbp)
	movss	.LC3(%rip), %xmm0
	movss	%xmm0, -12(%rbp)
	leaq	-16(%rbp), %rax
	movq	%rax, %rdi
	call	global_init
	leaq	-16(%rbp), %rax
	movq	%rax, %rdi
	call	global_main
	leaq	-16(%rbp), %rax
	movq	%rax, %rdi
	call	global_free
	movl	$0, %eax
	movq	-8(%rbp), %rdx
	xorq	%fs:40, %rdx
	je	.L11
	call	__stack_chk_fail@PLT
.L11:
	leave
	.cfi_def_cfa 7, 8
	ret
	.cfi_endproc
.LFE14:
	.size	main, .-main
	.section	.rodata
	.align 4
.LC3:
	.long	1074580685
	.ident	"GCC: (GNU) 8.2.1 20180831"
	.section	.note.GNU-stack,"",@progbits
