	.file	"38.c"
	.text
	.section	.rodata
.LC0:
	.string	"material %d\n"
	.text
	.type	material_print, @function
material_print:
.LFB6:
	.cfi_startproc
	pushq	%rbp
	.cfi_def_cfa_offset 16
	.cfi_offset 6, -16
	movq	%rsp, %rbp
	.cfi_def_cfa_register 6
	subq	$16, %rsp
	movq	%rdi, -8(%rbp)
	movq	-8(%rbp), %rax
	movl	(%rax), %eax
	movl	%eax, %esi
	leaq	.LC0(%rip), %rdi
	movl	$0, %eax
	call	printf@PLT
	nop
	leave
	.cfi_def_cfa 7, 8
	ret
	.cfi_endproc
.LFE6:
	.size	material_print, .-material_print
	.type	entities_get, @function
entities_get:
.LFB8:
	.cfi_startproc
	pushq	%rbp
	.cfi_def_cfa_offset 16
	.cfi_offset 6, -16
	movq	%rsp, %rbp
	.cfi_def_cfa_register 6
	movq	%rdi, -8(%rbp)
	movq	%rsi, -16(%rbp)
	movq	-8(%rbp), %rax
	popq	%rbp
	.cfi_def_cfa 7, 8
	ret
	.cfi_endproc
.LFE8:
	.size	entities_get, .-entities_get
	.section	.rodata
.LC1:
	.string	"a"
	.text
	.type	global_main, @function
global_main:
.LFB9:
	.cfi_startproc
	pushq	%rbp
	.cfi_def_cfa_offset 16
	.cfi_offset 6, -16
	movq	%rsp, %rbp
	.cfi_def_cfa_register 6
	subq	$32, %rsp
	movq	%rdi, -24(%rbp)
	movq	-24(%rbp), %rax
	leaq	.LC1(%rip), %rsi
	movq	%rax, %rdi
	call	entities_get
	movq	%rax, -8(%rbp)
	movq	-24(%rbp), %rax
	leaq	32(%rax), %rdx
	movq	-8(%rbp), %rax
	movq	%rdx, 8(%rax)
	movq	-8(%rbp), %rax
	movq	8(%rax), %rax
	movq	%rax, %rdi
	call	material_print
	movq	-24(%rbp), %rax
	movl	$4, 32(%rax)
	movq	-8(%rbp), %rax
	movq	8(%rax), %rax
	movq	%rax, %rdi
	call	material_print
	nop
	leave
	.cfi_def_cfa 7, 8
	ret
	.cfi_endproc
.LFE9:
	.size	global_main, .-global_main
	.type	global_init, @function
global_init:
.LFB10:
	.cfi_startproc
	pushq	%rbp
	.cfi_def_cfa_offset 16
	.cfi_offset 6, -16
	movq	%rsp, %rbp
	.cfi_def_cfa_register 6
	movq	%rdi, -8(%rbp)
	nop
	popq	%rbp
	.cfi_def_cfa 7, 8
	ret
	.cfi_endproc
.LFE10:
	.size	global_init, .-global_init
	.type	global_free, @function
global_free:
.LFB11:
	.cfi_startproc
	pushq	%rbp
	.cfi_def_cfa_offset 16
	.cfi_offset 6, -16
	movq	%rsp, %rbp
	.cfi_def_cfa_register 6
	movq	%rdi, -8(%rbp)
	nop
	popq	%rbp
	.cfi_def_cfa 7, 8
	ret
	.cfi_endproc
.LFE11:
	.size	global_free, .-global_free
	.globl	main
	.type	main, @function
main:
.LFB12:
	.cfi_startproc
	pushq	%rbp
	.cfi_def_cfa_offset 16
	.cfi_offset 6, -16
	movq	%rsp, %rbp
	.cfi_def_cfa_register 6
	subq	$64, %rsp
	movl	%edi, -52(%rbp)
	movq	%rsi, -64(%rbp)
	movq	%fs:40, %rax
	movq	%rax, -8(%rbp)
	xorl	%eax, %eax
	movl	$0, -48(%rbp)
	movq	$0, -40(%rbp)
	movl	$0, -32(%rbp)
	movq	$0, -24(%rbp)
	movl	$3, -16(%rbp)
	movl	$3, -12(%rbp)
	leaq	-48(%rbp), %rax
	movq	%rax, %rdi
	call	global_init
	leaq	-48(%rbp), %rax
	movq	%rax, %rdi
	call	global_main
	leaq	-48(%rbp), %rax
	movq	%rax, %rdi
	call	global_free
	movl	$0, %eax
	movq	-8(%rbp), %rdx
	xorq	%fs:40, %rdx
	je	.L9
	call	__stack_chk_fail@PLT
.L9:
	leave
	.cfi_def_cfa 7, 8
	ret
	.cfi_endproc
.LFE12:
	.size	main, .-main
	.ident	"GCC: (GNU) 8.2.1 20180831"
	.section	.note.GNU-stack,"",@progbits
